target datalayout = "e-m:e-p270:32:32-p271:32:32-p272:64:64-i64:64-i128:128-f80:128-n8:16:32:64-S128"
target triple = "x86_64-pc-linux-gnu"

; Function Attrs: mustprogress norecurse ssp uwtable
define dso_local noundef i32 @main(i32 noundef %0, ptr noundef %1) #11 {
  %3 = alloca i32, align 4
  %4 = alloca i32, align 4
  %5 = alloca ptr, align 8
  store i32 0, ptr %3, align 4
  store i32 %0, ptr %4, align 4, !tbaa !35
  store ptr %1, ptr %5, align 8, !tbaa !39
  call void @_Z12TryGLVersioniibbi(i32 noundef 1, i32 noundef 0, i1 noundef zeroext false, i1 noundef zeroext false, i32 noundef 0)
  call void @_Z12TryGLVersioniibbi(i32 noundef 3, i32 noundef 2, i1 noundef zeroext true, i1 noundef zeroext true, i32 noundef 204801)
  call void @_Z12TryGLVersioniibbi(i32 noundef 4, i32 noundef 1, i1 noundef zeroext false, i1 noundef zeroext false, i32 noundef 0)
  call void @_Z12TryGLVersioniibbi(i32 noundef 3, i32 noundef 3, i1 noundef zeroext false, i1 noundef zeroext true, i32 noundef 204801)
  call void @_Z12TryGLVersioniibbi(i32 noundef 3, i32 noundef 3, i1 noundef zeroext true, i1 noundef zeroext true, i32 noundef 204801)
  call void @_Z12TryGLVersioniibbi(i32 noundef 3, i32 noundef 3, i1 noundef zeroext false, i1 noundef zeroext true, i32 noundef 204802)
  call void @_Z12TryGLVersioniibbi(i32 noundef 3, i32 noundef 3, i1 noundef zeroext false, i1 noundef zeroext true, i32 noundef 0)
  call void @_Z12TryGLVersioniibbi(i32 noundef 1, i32 noundef 0, i1 noundef zeroext false, i1 noundef zeroext true, i32 noundef 0)
  ret i32 0
}