; Function Attrs: mustprogress norecurse ssp uwtable
define dso_local noundef i32 @main(i32 noundef %0, ptr noundef readnone captures(none) %1) local_unnamed_addr #7 {
  tail call void @_Z12TryGLVersioniibbi(i32 noundef 1, i32 noundef 0, i1 noundef zeroext false, i1 noundef zeroext false, i32 noundef 0)
  tail call void @_Z12TryGLVersioniibbi(i32 noundef 3, i32 noundef 2, i1 noundef zeroext true, i1 noundef zeroext true, i32 noundef 204801)
  tail call void @_Z12TryGLVersioniibbi(i32 noundef 4, i32 noundef 1, i1 noundef zeroext false, i1 noundef zeroext false, i32 noundef 0)
  tail call void @_Z12TryGLVersioniibbi(i32 noundef 3, i32 noundef 3, i1 noundef zeroext false, i1 noundef zeroext true, i32 noundef 204801)
  tail call void @_Z12TryGLVersioniibbi(i32 noundef 3, i32 noundef 3, i1 noundef zeroext true, i1 noundef zeroext true, i32 noundef 204801)
  tail call void @_Z12TryGLVersioniibbi(i32 noundef 3, i32 noundef 3, i1 noundef zeroext false, i1 noundef zeroext true, i32 noundef 204802)
  tail call void @_Z12TryGLVersioniibbi(i32 noundef 3, i32 noundef 3, i1 noundef zeroext false, i1 noundef zeroext true, i32 noundef 0)
  tail call void @_Z12TryGLVersioniibbi(i32 noundef 1, i32 noundef 0, i1 noundef zeroext false, i1 noundef zeroext true, i32 noundef 0)
  ret i32 0
}